; Function Attrs: mustprogress uwtable
define hidden void @_ZN8facebook6hermes7tracing14TracingRuntime19setValueAtIndexImplERKNS_3jsi5ArrayEmRKNS3_5ValueE(ptr noundef nonnull align 8 dereferenceable(172) %this, ptr noundef nonnull align 8 dereferenceable(8) %arr, i64 noundef %i, ptr noundef nonnull align 8 dereferenceable(16) %value) unnamed_addr #0 align 2 {
entry:
  %i.addr = alloca i64, align 8
  %ref.tmp = alloca %"class.std::chrono::duration.37", align 8
  %ref.tmp2 = alloca i64, align 8
  %ref.tmp4 = alloca %"class.facebook::hermes::tracing::SynthTrace::TraceValue", align 8
  store i64 %i, ptr %i.addr, align 8
  %trace_ = getelementptr inbounds i8, ptr %this, i64 32
  %call.i = tail call i64 @_ZNSt6chrono3_V212steady_clock3nowEv() #27
  %startTime_.i = getelementptr inbounds i8, ptr %this, i64 160
  %retval.sroa.0.0.copyload.i1.i.i = load i64, ptr %startTime_.i, align 8
  %sub.i.i.i = sub nsw i64 %call.i, %retval.sroa.0.0.copyload.i1.i.i
  %div.i.i.i = sdiv i64 %sub.i.i.i, 1000000
  store i64 %div.i.i.i, ptr %ref.tmp, align 8
  %vtable = load ptr, ptr %this, align 8
  %vfn = getelementptr inbounds i8, ptr %vtable, i64 664
  %0 = load ptr, ptr %vfn, align 8
  %call3 = tail call noundef i64 %0(ptr noundef nonnull align 8 dereferenceable(172) %this, ptr noundef nonnull align 8 dereferenceable(8) %arr)
  store i64 %call3, ptr %ref.tmp2, align 8
  %call5 = tail call { i32, i64 } @_ZN8facebook6hermes7tracing14TracingRuntime12toTraceValueERKNS_3jsi5ValueE(ptr noundef nonnull align 8 dereferenceable(172) %this, ptr noundef nonnull align 8 dereferenceable(16) %value)
  %1 = extractvalue { i32, i64 } %call5, 0
  store i32 %1, ptr %ref.tmp4, align 8
  %2 = getelementptr inbounds i8, ptr %ref.tmp4, i64 8
  %3 = extractvalue { i32, i64 } %call5, 1
  store i64 %3, ptr %2, align 8
  call void @_ZN8facebook6hermes7tracing10SynthTrace12emplace_backINS2_16ArrayWriteRecordEJNSt6chrono8durationIlSt5ratioILl1ELl1000EEEEmRmNS2_10TraceValueEEEEvDpOT0_(ptr noundef nonnull align 8 dereferenceable(48) %trace_, ptr noundef nonnull align 8 dereferenceable(8) %ref.tmp, ptr noundef nonnull align 8 dereferenceable(8) %ref.tmp2, ptr noundef nonnull align 8 dereferenceable(8) %i.addr, ptr noundef nonnull align 8 dereferenceable(16) %ref.tmp4)
  %4 = load i64, ptr %i.addr, align 8
  %plain_.i = getelementptr inbounds i8, ptr %this, i64 16
  %5 = load ptr, ptr %plain_.i, align 8
  %vtable.i = load ptr, ptr %5, align 8
  %vfn.i = getelementptr inbounds i8, ptr %vtable.i, i64 472
  %6 = load ptr, ptr %vfn.i, align 8
  call void %6(ptr noundef nonnull align 8 dereferenceable(8) %5, ptr noundef nonnull align 8 dereferenceable(8) %arr, i64 noundef %4, ptr noundef nonnull align 8 dereferenceable(16) %value)
  ret void
}